target datalayout = "e-m:e-p270:32:32-p271:32:32-p272:64:64-i64:64-i128:128-f80:128-n8:16:32:64-S128"
target triple = "x86_64-pc-linux-gnu"

%struct.darktable_t = type { %struct.dt_codepath_t, i32, i32, ptr, ptr, ptr, ptr, ptr, ptr, ptr, ptr, ptr, ptr, ptr, ptr, ptr, ptr, ptr, ptr, ptr, ptr, ptr, ptr, ptr, ptr, ptr, ptr, ptr, ptr, ptr, [64 x %struct.dt_pthread_mutex_t], %struct.dt_pthread_mutex_t, %struct.dt_pthread_mutex_t, %struct.dt_pthread_mutex_t, %struct.dt_pthread_mutex_t, %struct.dt_pthread_mutex_t, ptr, ptr, ptr, ptr, ptr, ptr, ptr, ptr, ptr, ptr, ptr, ptr, ptr, %struct.dt_lua_state_t, ptr, double, ptr, i32, [47 x i32], i32, i32, ptr, ptr, %struct.dt_sys_resources_t, %struct.dt_backthumb_t, %struct.dt_gimp_t }
%struct.dt_codepath_t = type { i8, [3 x i8] }
%struct.dt_pthread_mutex_t = type { %union.pthread_mutex_t }
%union.pthread_mutex_t = type { %struct.__pthread_mutex_s }
%struct.__pthread_mutex_s = type { i32, i32, i32, i32, i32, i16, i16, %struct.__pthread_internal_list }
%struct.__pthread_internal_list = type { ptr, ptr }
%struct.dt_lua_state_t = type { i32 }
%struct.dt_sys_resources_t = type { i64, i64, ptr, ptr, i32 }
%struct.dt_backthumb_t = type { double, double, i32, i32, i32, i32 }
%struct.dt_gimp_t = type { i32, ptr, ptr, i32, i32 }
%struct.dt_lib_module_t = type { %struct.dt_action_t, ptr, ptr, ptr, ptr, ptr, ptr, ptr, ptr, ptr, ptr, ptr, ptr, ptr, ptr, ptr, ptr, ptr, ptr, ptr, ptr, ptr, ptr, ptr, ptr, ptr, ptr, ptr, ptr, ptr, ptr, [128 x i8], ptr, ptr, i32, ptr, ptr, ptr, i32 }
%struct.dt_action_t = type { i32, ptr, ptr, ptr, ptr, ptr }
%struct.dt_lib_tool_preferences_t = type { ptr, ptr, ptr, ptr, ptr, ptr, ptr, ptr, ptr, ptr, ptr, ptr, ptr, ptr, ptr, ptr, ptr, ptr, ptr, ptr, ptr, ptr, ptr, ptr, ptr, i32 }
%struct.dt_gui_gtk_t = type { ptr, %struct.dt_gui_widgets_t, %struct.dt_gui_scrollbars_t, i32, ptr, i32, [39 x %struct._GdkRGBA], i32, i32, i32, i32, i32, double, double, double, double, ptr, double, double, double, double, i32, i32, [4096 x i8], i32, i32, i32, %struct.dt_pthread_mutex_t }
%struct.dt_gui_widgets_t = type { ptr, ptr, ptr, ptr, i32, i32, i32 }
%struct.dt_gui_scrollbars_t = type { ptr, ptr, i32 }
%struct._GdkRGBA = type { double, double, double, double }
%struct._cairo_rectangle_int = type { i32, i32, i32, i32 }
%struct.dt_thumbtable_t = type { i32, i32, i32, i32, ptr, ptr, i32, i32, i32, i32, i32, i32, i32, i32, %struct._cairo_rectangle_int, %struct._PangoRectangle, i32, i32, i32, i32, i32, i32, ptr, i32, i32, i32, ptr, i32, i32, i32, i32, i32, i32, float, i32, i32 }
%struct._PangoRectangle = type { i32, i32, i32, i32 }

@darktable = external global %struct.darktable_t, align 8

; Function Attrs: nounwind uwtable
define internal void @_overlays_toggle_button(ptr noundef %0, ptr noundef %1) #0 {
  %3 = alloca ptr, align 8
  %4 = alloca ptr, align 8
  %5 = alloca ptr, align 8
  %6 = alloca i32, align 4
  %7 = alloca i32, align 4
  store ptr %0, ptr %3, align 8, !tbaa !68
  store ptr %1, ptr %4, align 8, !tbaa !6
  call void @llvm.lifetime.start.p0(i64 8, ptr %5) #9
  %8 = load ptr, ptr %4, align 8, !tbaa !6
  %9 = getelementptr inbounds nuw %struct.dt_lib_module_t, ptr %8, i32 0, i32 30
  %10 = load ptr, ptr %9, align 8, !tbaa !13
  store ptr %10, ptr %5, align 8, !tbaa !11
  %11 = load ptr, ptr %5, align 8, !tbaa !11
  %12 = getelementptr inbounds nuw %struct.dt_lib_tool_preferences_t, ptr %11, i32 0, i32 25
  %13 = load i32, ptr %12, align 8, !tbaa !96
  %14 = icmp ne i32 %13, 0
  br i1 %14, label %15, label %16

15:                                               ; preds = %2
  store i32 1, ptr %6, align 4
  br label %105

16:                                               ; preds = %2
  call void @llvm.lifetime.start.p0(i64 4, ptr %7) #9
  store i32 1, ptr %7, align 4, !tbaa !97
  %17 = load ptr, ptr %5, align 8, !tbaa !11
  %18 = getelementptr inbounds nuw %struct.dt_lib_tool_preferences_t, ptr %17, i32 0, i32 9
  %19 = load ptr, ptr %18, align 8, !tbaa !72
  %20 = call i64 @gtk_toggle_button_get_type() #11
  %21 = call ptr @g_type_check_instance_cast(ptr noundef %19, i64 noundef %20)
  %22 = call i32 @gtk_toggle_button_get_active(ptr noundef %21)
  %23 = icmp ne i32 %22, 0
  br i1 %23, label %24, label %25

24:                                               ; preds = %16
  store i32 0, ptr %7, align 4, !tbaa !97
  br label %75

25:                                               ; preds = %16
  %26 = load ptr, ptr %5, align 8, !tbaa !11
  %27 = getelementptr inbounds nuw %struct.dt_lib_tool_preferences_t, ptr %26, i32 0, i32 11
  %28 = load ptr, ptr %27, align 8, !tbaa !74
  %29 = call i64 @gtk_toggle_button_get_type() #11
  %30 = call ptr @g_type_check_instance_cast(ptr noundef %28, i64 noundef %29)
  %31 = call i32 @gtk_toggle_button_get_active(ptr noundef %30)
  %32 = icmp ne i32 %31, 0
  br i1 %32, label %33, label %34

33:                                               ; preds = %25
  store i32 2, ptr %7, align 4, !tbaa !97
  br label %74

34:                                               ; preds = %25
  %35 = load ptr, ptr %5, align 8, !tbaa !11
  %36 = getelementptr inbounds nuw %struct.dt_lib_tool_preferences_t, ptr %35, i32 0, i32 12
  %37 = load ptr, ptr %36, align 8, !tbaa !75
  %38 = call i64 @gtk_toggle_button_get_type() #11
  %39 = call ptr @g_type_check_instance_cast(ptr noundef %37, i64 noundef %38)
  %40 = call i32 @gtk_toggle_button_get_active(ptr noundef %39)
  %41 = icmp ne i32 %40, 0
  br i1 %41, label %42, label %43

42:                                               ; preds = %34
  store i32 3, ptr %7, align 4, !tbaa !97
  br label %73

43:                                               ; preds = %34
  %44 = load ptr, ptr %5, align 8, !tbaa !11
  %45 = getelementptr inbounds nuw %struct.dt_lib_tool_preferences_t, ptr %44, i32 0, i32 13
  %46 = load ptr, ptr %45, align 8, !tbaa !76
  %47 = call i64 @gtk_toggle_button_get_type() #11
  %48 = call ptr @g_type_check_instance_cast(ptr noundef %46, i64 noundef %47)
  %49 = call i32 @gtk_toggle_button_get_active(ptr noundef %48)
  %50 = icmp ne i32 %49, 0
  br i1 %50, label %51, label %52

51:                                               ; preds = %43
  store i32 4, ptr %7, align 4, !tbaa !97
  br label %72

52:                                               ; preds = %43
  %53 = load ptr, ptr %5, align 8, !tbaa !11
  %54 = getelementptr inbounds nuw %struct.dt_lib_tool_preferences_t, ptr %53, i32 0, i32 14
  %55 = load ptr, ptr %54, align 8, !tbaa !77
  %56 = call i64 @gtk_toggle_button_get_type() #11
  %57 = call ptr @g_type_check_instance_cast(ptr noundef %55, i64 noundef %56)
  %58 = call i32 @gtk_toggle_button_get_active(ptr noundef %57)
  %59 = icmp ne i32 %58, 0
  br i1 %59, label %60, label %61

60:                                               ; preds = %52
  store i32 5, ptr %7, align 4, !tbaa !97
  br label %71

61:                                               ; preds = %52
  %62 = load ptr, ptr %5, align 8, !tbaa !11
  %63 = getelementptr inbounds nuw %struct.dt_lib_tool_preferences_t, ptr %62, i32 0, i32 15
  %64 = load ptr, ptr %63, align 8, !tbaa !78
  %65 = call i64 @gtk_toggle_button_get_type() #11
  %66 = call ptr @g_type_check_instance_cast(ptr noundef %64, i64 noundef %65)
  %67 = call i32 @gtk_toggle_button_get_active(ptr noundef %66)
  %68 = icmp ne i32 %67, 0
  br i1 %68, label %69, label %70

69:                                               ; preds = %61
  store i32 6, ptr %7, align 4, !tbaa !97
  br label %70

70:                                               ; preds = %69, %61
  br label %71

71:                                               ; preds = %70, %60
  br label %72

72:                                               ; preds = %71, %51
  br label %73

73:                                               ; preds = %72, %42
  br label %74

74:                                               ; preds = %73, %33
  br label %75

75:                                               ; preds = %74, %24
  %76 = load ptr, ptr %5, align 8, !tbaa !11
  %77 = getelementptr inbounds nuw %struct.dt_lib_tool_preferences_t, ptr %76, i32 0, i32 17
  %78 = load ptr, ptr %77, align 8, !tbaa !80
  %79 = call i64 @gtk_toggle_button_get_type() #11
  %80 = call ptr @g_type_check_instance_cast(ptr noundef %78, i64 noundef %79)
  %81 = call i32 @gtk_toggle_button_get_active(ptr noundef %80)
  %82 = load ptr, ptr getelementptr inbounds nuw (%struct.darktable_t, ptr @darktable, i32 0, i32 14), align 8, !tbaa !60
  %83 = getelementptr inbounds nuw %struct.dt_gui_gtk_t, ptr %82, i32 0, i32 0
  %84 = load ptr, ptr %83, align 8, !tbaa !99
  %85 = call ptr @dt_ui_thumbtable(ptr noundef %84)
  %86 = getelementptr inbounds nuw %struct.dt_thumbtable_t, ptr %85, i32 0, i32 3
  store i32 %81, ptr %86, align 4, !tbaa !109
  %87 = load ptr, ptr getelementptr inbounds nuw (%struct.darktable_t, ptr @darktable, i32 0, i32 14), align 8, !tbaa !60
  %88 = getelementptr inbounds nuw %struct.dt_gui_gtk_t, ptr %87, i32 0, i32 0
  %89 = load ptr, ptr %88, align 8, !tbaa !99
  %90 = call ptr @dt_ui_thumbtable(ptr noundef %89)
  %91 = load i32, ptr %7, align 4, !tbaa !97
  call void @dt_thumbtable_set_overlays_mode(ptr noundef %90, i32 noundef %91)
  %92 = load ptr, ptr %5, align 8, !tbaa !11
  %93 = getelementptr inbounds nuw %struct.dt_lib_tool_preferences_t, ptr %92, i32 0, i32 16
  %94 = load ptr, ptr %93, align 8, !tbaa !79
  %95 = load i32, ptr %7, align 4, !tbaa !97
  %96 = icmp eq i32 %95, 6
  %97 = zext i1 %96 to i32
  call void @gtk_widget_set_sensitive(ptr noundef %94, i32 noundef %97)
  %98 = load i32, ptr %7, align 4, !tbaa !97
  %99 = icmp ne i32 %98, 6
  br i1 %99, label %100, label %104

100:                                              ; preds = %75
  %101 = load ptr, ptr %5, align 8, !tbaa !11
  %102 = getelementptr inbounds nuw %struct.dt_lib_tool_preferences_t, ptr %101, i32 0, i32 5
  %103 = load ptr, ptr %102, align 8, !tbaa !67
  call void @gtk_widget_hide(ptr noundef %103)
  br label %104

104:                                              ; preds = %100, %75
  call void @llvm.lifetime.end.p0(i64 4, ptr %7) #9
  store i32 0, ptr %6, align 4
  br label %105

105:                                              ; preds = %104, %15
  call void @llvm.lifetime.end.p0(i64 8, ptr %5) #9
  %106 = load i32, ptr %6, align 4
  switch i32 %106, label %108 [
    i32 0, label %107
    i32 1, label %107
  ]

107:                                              ; preds = %105, %105
  ret void

108:                                              ; preds = %105
  unreachable
}