; Function Attrs: nounwind uwtable
define internal void @_overlays_toggle_button(ptr readnone captures(none) %0, ptr noundef readonly captures(none) %1) #1 {
  %3 = getelementptr inbounds nuw i8, ptr %1, i64 280
  %4 = load ptr, ptr %3, align 8, !tbaa !6
  %5 = getelementptr inbounds nuw i8, ptr %4, i64 200
  %6 = load i32, ptr %5, align 8, !tbaa !91
  %.not = icmp eq i32 %6, 0
  br i1 %.not, label %7, label %57

7:                                                ; preds = %2
  %8 = getelementptr inbounds nuw i8, ptr %4, i64 72
  %9 = load ptr, ptr %8, align 8, !tbaa !67
  %10 = tail call i64 @gtk_toggle_button_get_type() #12
  %11 = tail call ptr @g_type_check_instance_cast(ptr noundef %9, i64 noundef %10) #10
  %12 = tail call i32 @gtk_toggle_button_get_active(ptr noundef %11) #10
  %.not13 = icmp eq i32 %12, 0
  br i1 %.not13, label %13, label %39

13:                                               ; preds = %7
  %14 = getelementptr inbounds nuw i8, ptr %4, i64 88
  %15 = load ptr, ptr %14, align 8, !tbaa !69
  %16 = tail call ptr @g_type_check_instance_cast(ptr noundef %15, i64 noundef %10) #10
  %17 = tail call i32 @gtk_toggle_button_get_active(ptr noundef %16) #10
  %.not14 = icmp eq i32 %17, 0
  br i1 %.not14, label %18, label %39

18:                                               ; preds = %13
  %19 = getelementptr inbounds nuw i8, ptr %4, i64 96
  %20 = load ptr, ptr %19, align 8, !tbaa !70
  %21 = tail call ptr @g_type_check_instance_cast(ptr noundef %20, i64 noundef %10) #10
  %22 = tail call i32 @gtk_toggle_button_get_active(ptr noundef %21) #10
  %.not15 = icmp eq i32 %22, 0
  br i1 %.not15, label %23, label %39

23:                                               ; preds = %18
  %24 = getelementptr inbounds nuw i8, ptr %4, i64 104
  %25 = load ptr, ptr %24, align 8, !tbaa !71
  %26 = tail call ptr @g_type_check_instance_cast(ptr noundef %25, i64 noundef %10) #10
  %27 = tail call i32 @gtk_toggle_button_get_active(ptr noundef %26) #10
  %.not16 = icmp eq i32 %27, 0
  br i1 %.not16, label %28, label %39

28:                                               ; preds = %23
  %29 = getelementptr inbounds nuw i8, ptr %4, i64 112
  %30 = load ptr, ptr %29, align 8, !tbaa !72
  %31 = tail call ptr @g_type_check_instance_cast(ptr noundef %30, i64 noundef %10) #10
  %32 = tail call i32 @gtk_toggle_button_get_active(ptr noundef %31) #10
  %.not17 = icmp eq i32 %32, 0
  br i1 %.not17, label %33, label %39

33:                                               ; preds = %28
  %34 = getelementptr inbounds nuw i8, ptr %4, i64 120
  %35 = load ptr, ptr %34, align 8, !tbaa !73
  %36 = tail call ptr @g_type_check_instance_cast(ptr noundef %35, i64 noundef %10) #10
  %37 = tail call i32 @gtk_toggle_button_get_active(ptr noundef %36) #10
  %.not18 = icmp eq i32 %37, 0
  br i1 %.not18, label %39, label %38

38:                                               ; preds = %33
  br label %39

39:                                               ; preds = %28, %23, %18, %13, %7, %33, %38
  %40 = phi i32 [ 1, %38 ], [ 0, %33 ], [ 0, %7 ], [ 0, %13 ], [ 0, %18 ], [ 0, %23 ], [ 0, %28 ]
  %.not19 = phi i1 [ true, %38 ], [ false, %33 ], [ false, %7 ], [ false, %13 ], [ false, %18 ], [ false, %23 ], [ false, %28 ]
  %.0 = phi i32 [ 6, %38 ], [ 1, %33 ], [ 0, %7 ], [ 2, %13 ], [ 3, %18 ], [ 4, %23 ], [ 5, %28 ]
  %41 = getelementptr inbounds nuw i8, ptr %4, i64 136
  %42 = load ptr, ptr %41, align 8, !tbaa !75
  %43 = tail call ptr @g_type_check_instance_cast(ptr noundef %42, i64 noundef %10) #10
  %44 = tail call i32 @gtk_toggle_button_get_active(ptr noundef %43) #10
  %45 = load ptr, ptr getelementptr inbounds nuw (i8, ptr @darktable, i64 104), align 8, !tbaa !56
  %46 = load ptr, ptr %45, align 8, !tbaa !93
  %47 = tail call ptr @dt_ui_thumbtable(ptr noundef %46) #10
  %48 = getelementptr inbounds nuw i8, ptr %47, i64 12
  store i32 %44, ptr %48, align 4, !tbaa !103
  %49 = load ptr, ptr getelementptr inbounds nuw (i8, ptr @darktable, i64 104), align 8, !tbaa !56
  %50 = load ptr, ptr %49, align 8, !tbaa !93
  %51 = tail call ptr @dt_ui_thumbtable(ptr noundef %50) #10
  tail call void @dt_thumbtable_set_overlays_mode(ptr noundef %51, i32 noundef %.0) #10
  %52 = getelementptr inbounds nuw i8, ptr %4, i64 128
  %53 = load ptr, ptr %52, align 8, !tbaa !74
  tail call void @gtk_widget_set_sensitive(ptr noundef %53, i32 noundef %40) #10
  br i1 %.not19, label %57, label %54

54:                                               ; preds = %39
  %55 = getelementptr inbounds nuw i8, ptr %4, i64 40
  %56 = load ptr, ptr %55, align 8, !tbaa !63
  tail call void @gtk_widget_hide(ptr noundef %56) #10
  br label %57

57:                                               ; preds = %39, %54, %2
  ret void
}